target datalayout = "e-m:e-p270:32:32-p271:32:32-p272:64:64-i64:64-i128:128-f80:128-n8:16:32:64-S128"
target triple = "x86_64-pc-linux-gnu"

%"class.std::__exception_ptr::exception_ptr" = type { ptr }
%"class.std::runtime_error" = type { %"class.std::exception", %"struct.std::__cow_string" }
%"class.std::exception" = type { ptr }
%"struct.std::__cow_string" = type { %union.anon }
%union.anon = type { ptr }
%"class.faiss::FaissException" = type { %"class.std::exception", %"class.std::__cxx11::basic_string" }
%"class.std::__cxx11::basic_string" = type { %"struct.std::__cxx11::basic_string<char>::_Alloc_hider", i64, %union.anon.0 }
%"struct.std::__cxx11::basic_string<char>::_Alloc_hider" = type { ptr }
%union.anon.0 = type { i64, [8 x i8] }

@_ZTIN5faiss14FaissExceptionE = external constant ptr
@_ZTISt9exception = external constant ptr
@.str = private unnamed_addr constant [14 x i8] c"Unknown error\00", align 1
@faiss_last_exception = external thread_local global %"class.std::__exception_ptr::exception_ptr", align 8
@_ZTVSt9exception = available_externally unnamed_addr constant { [5 x ptr] } { [5 x ptr] [ptr null, ptr @_ZTISt9exception, ptr @_ZNSt9exceptionD1Ev, ptr @_ZNSt9exceptionD0Ev, ptr @_ZNKSt9exception4whatEv] }, align 8

; Function Attrs: inlinehint mustprogress nounwind uwtable
define linkonce_odr void @_ZNSt15__exception_ptr13exception_ptr4swapERS0_(ptr noundef nonnull align 8 dereferenceable(8) %0, ptr noundef nonnull align 8 dereferenceable(8) %1) #9 comdat align 2 {
  %3 = alloca ptr, align 8
  %4 = alloca ptr, align 8
  %5 = alloca ptr, align 8
  store ptr %0, ptr %3, align 8, !tbaa !30
  store ptr %1, ptr %4, align 8, !tbaa !30
  %6 = load ptr, ptr %3, align 8
  call void @llvm.lifetime.start.p0(i64 8, ptr %5) #3
  %7 = getelementptr inbounds nuw %"class.std::__exception_ptr::exception_ptr", ptr %6, i32 0, i32 0
  %8 = load ptr, ptr %7, align 8, !tbaa !32
  store ptr %8, ptr %5, align 8, !tbaa !29
  %9 = load ptr, ptr %4, align 8, !tbaa !30
  %10 = getelementptr inbounds nuw %"class.std::__exception_ptr::exception_ptr", ptr %9, i32 0, i32 0
  %11 = load ptr, ptr %10, align 8, !tbaa !32
  %12 = getelementptr inbounds nuw %"class.std::__exception_ptr::exception_ptr", ptr %6, i32 0, i32 0
  store ptr %11, ptr %12, align 8, !tbaa !32
  %13 = load ptr, ptr %5, align 8, !tbaa !29
  %14 = load ptr, ptr %4, align 8, !tbaa !30
  %15 = getelementptr inbounds nuw %"class.std::__exception_ptr::exception_ptr", ptr %14, i32 0, i32 0
  store ptr %13, ptr %15, align 8, !tbaa !32
  call void @llvm.lifetime.end.p0(i64 8, ptr %5) #3
  ret void
}

; Function Attrs: mustprogress nounwind uwtable
define linkonce_odr void @_ZNSt15__exception_ptr13exception_ptrC2EOS0_(ptr noundef nonnull align 8 dereferenceable(8) %0, ptr noundef nonnull align 8 dereferenceable(8) %1) unnamed_addr #4 comdat align 2 {
  %3 = alloca ptr, align 8
  %4 = alloca ptr, align 8
  store ptr %0, ptr %3, align 8, !tbaa !30
  store ptr %1, ptr %4, align 8, !tbaa !30
  %5 = load ptr, ptr %3, align 8
  %6 = getelementptr inbounds nuw %"class.std::__exception_ptr::exception_ptr", ptr %5, i32 0, i32 0
  %7 = load ptr, ptr %4, align 8, !tbaa !30
  %8 = getelementptr inbounds nuw %"class.std::__exception_ptr::exception_ptr", ptr %7, i32 0, i32 0
  %9 = load ptr, ptr %8, align 8, !tbaa !32
  store ptr %9, ptr %6, align 8, !tbaa !32
  %10 = load ptr, ptr %4, align 8, !tbaa !30
  %11 = getelementptr inbounds nuw %"class.std::__exception_ptr::exception_ptr", ptr %10, i32 0, i32 0
  store ptr null, ptr %11, align 8, !tbaa !32
  ret void
}

; Function Attrs: mustprogress nounwind uwtable
define linkonce_odr void @_ZNSt9exceptionC2ERKS_(ptr noundef nonnull align 8 dereferenceable(8) %0, ptr noundef nonnull align 8 dereferenceable(8) %1) unnamed_addr #4 comdat align 2 {
  %3 = alloca ptr, align 8
  %4 = alloca ptr, align 8
  store ptr %0, ptr %3, align 8, !tbaa !16
  store ptr %1, ptr %4, align 8, !tbaa !16
  %5 = load ptr, ptr %3, align 8
  store ptr getelementptr inbounds inrange(-16, 24) ({ [5 x ptr] }, ptr @_ZTVSt9exception, i32 0, i32 0, i32 2), ptr %5, align 8, !tbaa !8
  ret void
}

; Function Attrs: inlinehint mustprogress nounwind uwtable
define linkonce_odr void @_ZNSt15__exception_ptr13exception_ptrD2Ev(ptr noundef nonnull align 8 dereferenceable(8) %0) unnamed_addr #9 comdat align 2 {
  %2 = alloca ptr, align 8
  store ptr %0, ptr %2, align 8, !tbaa !30
  %3 = load ptr, ptr %2, align 8
  %4 = getelementptr inbounds nuw %"class.std::__exception_ptr::exception_ptr", ptr %3, i32 0, i32 0
  %5 = load ptr, ptr %4, align 8, !tbaa !32
  %6 = icmp ne ptr %5, null
  br i1 %6, label %7, label %8

7:                                                ; preds = %1
  call void @_ZNSt15__exception_ptr13exception_ptr10_M_releaseEv(ptr noundef nonnull align 8 dereferenceable(8) %3) #3
  br label %8

8:                                                ; preds = %7, %1
  ret void
}

; Function Attrs: mustprogress nounwind uwtable
define linkonce_odr noundef nonnull align 8 dereferenceable(8) ptr @_ZNSt15__exception_ptr13exception_ptraSEOS0_(ptr noundef nonnull align 8 dereferenceable(8) %0, ptr noundef nonnull align 8 dereferenceable(8) %1) #4 comdat align 2 {
  %3 = alloca ptr, align 8
  %4 = alloca ptr, align 8
  %5 = alloca %"class.std::__exception_ptr::exception_ptr", align 8
  store ptr %0, ptr %3, align 8, !tbaa !30
  store ptr %1, ptr %4, align 8, !tbaa !30
  %6 = load ptr, ptr %3, align 8
  call void @llvm.lifetime.start.p0(i64 8, ptr %5) #3
  %7 = load ptr, ptr %4, align 8, !tbaa !30
  call void @_ZNSt15__exception_ptr13exception_ptrC2EOS0_(ptr noundef nonnull align 8 dereferenceable(8) %5, ptr noundef nonnull align 8 dereferenceable(8) %7) #3
  call void @_ZNSt15__exception_ptr13exception_ptr4swapERS0_(ptr noundef nonnull align 8 dereferenceable(8) %5, ptr noundef nonnull align 8 dereferenceable(8) %6) #3
  call void @_ZNSt15__exception_ptr13exception_ptrD2Ev(ptr noundef nonnull align 8 dereferenceable(8) %5) #3
  call void @llvm.lifetime.end.p0(i64 8, ptr %5) #3
  ret ptr %6
}

; Function Attrs: uwtable
define linkonce_odr hidden noundef ptr @_ZTW20faiss_last_exception() #11 comdat {
  %1 = icmp ne ptr @_ZTH20faiss_last_exception, null
  br i1 %1, label %2, label %3

2:                                                ; preds = %0
  call void @_ZTH20faiss_last_exception()
  br label %3

3:                                                ; preds = %2, %0
  %4 = call align 8 ptr @llvm.threadlocal.address.p0(ptr align 8 @faiss_last_exception)
  ret ptr %4
}

; Function Attrs: mustprogress uwtable
define i32 @faiss_IndexIVF_make_direct_map(ptr noundef %0, i32 noundef %1) #6 personality ptr @__gxx_personality_v0 {
  %3 = alloca i32, align 4
  %4 = alloca ptr, align 8
  %5 = alloca i32, align 4
  %6 = alloca ptr, align 8
  %7 = alloca i32, align 4
  %8 = alloca %"class.std::__exception_ptr::exception_ptr", align 8
  %9 = alloca %"class.std::runtime_error", align 8
  %10 = alloca ptr, align 8
  %11 = alloca %"class.std::__exception_ptr::exception_ptr", align 8
  %12 = alloca %"class.std::exception", align 8
  %13 = alloca ptr, align 8
  %14 = alloca %"class.std::__exception_ptr::exception_ptr", align 8
  %15 = alloca %"class.faiss::FaissException", align 8
  store ptr %0, ptr %4, align 8, !tbaa !38
  store i32 %1, ptr %5, align 4, !tbaa !53
  %16 = load ptr, ptr %4, align 8, !tbaa !38
  %17 = load i32, ptr %5, align 4, !tbaa !53
  %18 = icmp ne i32 %17, 0
  invoke void @_ZN5faiss8IndexIVF15make_direct_mapEb(ptr noundef nonnull align 8 dereferenceable(265) %16, i1 noundef zeroext %18)
          to label %19 unwind label %20

19:                                               ; preds = %2
  br label %60

20:                                               ; preds = %2
  %21 = landingpad { ptr, i32 }
          catch ptr @_ZTIN5faiss14FaissExceptionE
          catch ptr @_ZTISt9exception
          catch ptr null
  %22 = extractvalue { ptr, i32 } %21, 0
  store ptr %22, ptr %6, align 8
  %23 = extractvalue { ptr, i32 } %21, 1
  store i32 %23, ptr %7, align 4
  br label %24

24:                                               ; preds = %20
  %25 = load i32, ptr %7, align 4
  %26 = call i32 @llvm.eh.typeid.for.p0(ptr @_ZTIN5faiss14FaissExceptionE) #3
  %27 = icmp eq i32 %25, %26
  br i1 %27, label %28, label %35

28:                                               ; preds = %24
  call void @llvm.lifetime.start.p0(i64 8, ptr %13) #3
  %29 = load ptr, ptr %6, align 8
  %30 = call ptr @__cxa_begin_catch(ptr %29) #3
  store ptr %30, ptr %13, align 8
  call void @llvm.lifetime.start.p0(i64 8, ptr %14) #3
  %31 = load ptr, ptr %13, align 8, !tbaa !14
  invoke void @_ZN5faiss14FaissExceptionC2ERKS0_(ptr noundef nonnull align 8 dereferenceable(40) %15, ptr noundef nonnull align 8 dereferenceable(40) %31)
          to label %32 unwind label %55

32:                                               ; preds = %28
  call void @_ZSt18make_exception_ptrIN5faiss14FaissExceptionEENSt15__exception_ptr13exception_ptrET_(ptr dead_on_unwind writable sret(%"class.std::__exception_ptr::exception_ptr") align 8 %14, ptr noundef %15) #3
  %33 = call ptr @_ZTW20faiss_last_exception()
  %34 = call noundef nonnull align 8 dereferenceable(8) ptr @_ZNSt15__exception_ptr13exception_ptraSEOS0_(ptr noundef nonnull align 8 dereferenceable(8) %33, ptr noundef nonnull align 8 dereferenceable(8) %14) #3
  call void @_ZNSt15__exception_ptr13exception_ptrD2Ev(ptr noundef nonnull align 8 dereferenceable(8) %14) #3
  call void @_ZN5faiss14FaissExceptionD2Ev(ptr noundef nonnull align 8 dereferenceable(40) %15) #3
  call void @llvm.lifetime.end.p0(i64 8, ptr %14) #3
  store i32 -2, ptr %3, align 4
  call void @__cxa_end_catch()
  call void @llvm.lifetime.end.p0(i64 8, ptr %13) #3
  br label %61

35:                                               ; preds = %24
  %36 = call i32 @llvm.eh.typeid.for.p0(ptr @_ZTISt9exception) #3
  %37 = icmp eq i32 %25, %36
  br i1 %37, label %38, label %44

38:                                               ; preds = %35
  call void @llvm.lifetime.start.p0(i64 8, ptr %10) #3
  %39 = load ptr, ptr %6, align 8
  %40 = call ptr @__cxa_begin_catch(ptr %39) #3
  store ptr %40, ptr %10, align 8
  call void @llvm.lifetime.start.p0(i64 8, ptr %11) #3
  %41 = load ptr, ptr %10, align 8, !tbaa !16
  call void @_ZNSt9exceptionC2ERKS_(ptr noundef nonnull align 8 dereferenceable(8) %12, ptr noundef nonnull align 8 dereferenceable(8) %41) #3
  call void @_ZSt18make_exception_ptrISt9exceptionENSt15__exception_ptr13exception_ptrET_(ptr dead_on_unwind writable sret(%"class.std::__exception_ptr::exception_ptr") align 8 %11, ptr noundef %12) #3
  %42 = call ptr @_ZTW20faiss_last_exception()
  %43 = call noundef nonnull align 8 dereferenceable(8) ptr @_ZNSt15__exception_ptr13exception_ptraSEOS0_(ptr noundef nonnull align 8 dereferenceable(8) %42, ptr noundef nonnull align 8 dereferenceable(8) %11) #3
  call void @_ZNSt15__exception_ptr13exception_ptrD2Ev(ptr noundef nonnull align 8 dereferenceable(8) %11) #3
  call void @_ZNSt9exceptionD1Ev(ptr noundef nonnull align 8 dereferenceable(8) %12) #3
  call void @llvm.lifetime.end.p0(i64 8, ptr %11) #3
  store i32 -4, ptr %3, align 4
  call void @__cxa_end_catch()
  call void @llvm.lifetime.end.p0(i64 8, ptr %10) #3
  br label %61

44:                                               ; preds = %35
  %45 = load ptr, ptr %6, align 8
  %46 = call ptr @__cxa_begin_catch(ptr %45) #3
  call void @llvm.lifetime.start.p0(i64 8, ptr %8) #3
  invoke void @_ZNSt13runtime_errorC1EPKc(ptr noundef nonnull align 8 dereferenceable(16) %9, ptr noundef @.str)
          to label %47 unwind label %50

47:                                               ; preds = %44
  call void @_ZSt18make_exception_ptrISt13runtime_errorENSt15__exception_ptr13exception_ptrET_(ptr dead_on_unwind writable sret(%"class.std::__exception_ptr::exception_ptr") align 8 %8, ptr noundef %9) #3
  %48 = call ptr @_ZTW20faiss_last_exception()
  %49 = call noundef nonnull align 8 dereferenceable(8) ptr @_ZNSt15__exception_ptr13exception_ptraSEOS0_(ptr noundef nonnull align 8 dereferenceable(8) %48, ptr noundef nonnull align 8 dereferenceable(8) %8) #3
  call void @_ZNSt15__exception_ptr13exception_ptrD2Ev(ptr noundef nonnull align 8 dereferenceable(8) %8) #3
  call void @_ZNSt13runtime_errorD1Ev(ptr noundef nonnull align 8 dereferenceable(16) %9) #3
  call void @llvm.lifetime.end.p0(i64 8, ptr %8) #3
  store i32 -1, ptr %3, align 4
  call void @__cxa_end_catch()
  br label %61

50:                                               ; preds = %44
  %51 = landingpad { ptr, i32 }
          cleanup
  %52 = extractvalue { ptr, i32 } %51, 0
  store ptr %52, ptr %6, align 8
  %53 = extractvalue { ptr, i32 } %51, 1
  store i32 %53, ptr %7, align 4
  call void @llvm.lifetime.end.p0(i64 8, ptr %8) #3
  invoke void @__cxa_end_catch()
          to label %54 unwind label %68

54:                                               ; preds = %50
  br label %63

55:                                               ; preds = %28
  %56 = landingpad { ptr, i32 }
          cleanup
  %57 = extractvalue { ptr, i32 } %56, 0
  store ptr %57, ptr %6, align 8
  %58 = extractvalue { ptr, i32 } %56, 1
  store i32 %58, ptr %7, align 4
  call void @llvm.lifetime.end.p0(i64 8, ptr %14) #3
  invoke void @__cxa_end_catch()
          to label %59 unwind label %68

59:                                               ; preds = %55
  call void @llvm.lifetime.end.p0(i64 8, ptr %13) #3
  br label %63

60:                                               ; preds = %19
  store i32 0, ptr %3, align 4
  br label %61

61:                                               ; preds = %60, %32, %38, %47
  %62 = load i32, ptr %3, align 4
  ret i32 %62

63:                                               ; preds = %59, %54
  %64 = load ptr, ptr %6, align 8
  %65 = load i32, ptr %7, align 4
  %66 = insertvalue { ptr, i32 } poison, ptr %64, 0
  %67 = insertvalue { ptr, i32 } %66, i32 %65, 1
  resume { ptr, i32 } %67

68:                                               ; preds = %55, %50
  %69 = landingpad { ptr, i32 }
          catch ptr null
  %70 = extractvalue { ptr, i32 } %69, 0
  call void @__clang_call_terminate(ptr %70) #19
  unreachable
}